; ModuleID = '56/1269.c'
source_filename = "56/1269.c"
target datalayout = "e-m:e-p270:32:32-p271:32:32-p272:64:64-i64:64-f80:128-n8:16:32:64-S128"
target triple = "x86_64-pc-linux-gnu"

@.str = private unnamed_addr constant [3 x i8] c"%s\00", align 1

; Function Attrs: noinline nounwind uwtable
define dso_local i32 @main() #0 {
  %1 = alloca i32, align 4
  %2 = alloca [80 x i8], align 16
  %3 = alloca i8*, align 8
  %4 = alloca i8*, align 8
  %5 = alloca i8, align 1
  store i32 0, i32* %1, align 4
  %6 = getelementptr inbounds [80 x i8], [80 x i8]* %2, i64 0, i64 0
  %7 = call i32 (i8*, ...) @__isoc99_scanf(i8* getelementptr inbounds ([3 x i8], [3 x i8]* @.str, i64 0, i64 0), i8* %6)
  %8 = getelementptr inbounds [80 x i8], [80 x i8]* %2, i64 0, i64 0
  store i8* %8, i8** %3, align 8
  %9 = load i8*, i8** %3, align 8
  %10 = getelementptr inbounds [80 x i8], [80 x i8]* %2, i64 0, i64 0
  %11 = call i64 @strlen(i8* %10) #3
  %12 = getelementptr inbounds i8, i8* %9, i64 %11
  %13 = getelementptr inbounds i8, i8* %12, i64 -1
  store i8* %13, i8** %4, align 8
  br label %14

14:                                               ; preds = %26, %0
  %15 = load i8*, i8** %3, align 8
  %16 = load i8*, i8** %4, align 8
  %17 = icmp ult i8* %15, %16
  br i1 %17, label %18, label %31

18:                                               ; preds = %14
  %19 = load i8*, i8** %3, align 8
  %20 = load i8, i8* %19, align 1
  store i8 %20, i8* %5, align 1
  %21 = load i8*, i8** %4, align 8
  %22 = load i8, i8* %21, align 1
  %23 = load i8*, i8** %3, align 8
  store i8 %22, i8* %23, align 1
  %24 = load i8, i8* %5, align 1
  %25 = load i8*, i8** %4, align 8
  store i8 %24, i8* %25, align 1
  br label %26

26:                                               ; preds = %18
  %27 = load i8*, i8** %3, align 8
  %28 = getelementptr inbounds i8, i8* %27, i32 1
  store i8* %28, i8** %3, align 8
  %29 = load i8*, i8** %4, align 8
  %30 = getelementptr inbounds i8, i8* %29, i32 -1
  store i8* %30, i8** %4, align 8
  br label %14

31:                                               ; preds = %14
  %32 = getelementptr inbounds [80 x i8], [80 x i8]* %2, i64 0, i64 0
  %33 = call i32 (i8*, ...) @printf(i8* getelementptr inbounds ([3 x i8], [3 x i8]* @.str, i64 0, i64 0), i8* %32)
  ret i32 0
}

declare dso_local i32 @__isoc99_scanf(i8*, ...) #1

; Function Attrs: nounwind readonly
declare dso_local i64 @strlen(i8*) #2

declare dso_local i32 @printf(i8*, ...) #1


!llvm.module.flags = !{!0}
!llvm.ident = !{!1}

!0 = !{i32 1, !"wchar_size", i32 4}
!1 = !{!"clang version 10.0.0-4ubuntu1 "}
